target datalayout = "e-m:e-p270:32:32-p271:32:32-p272:64:64-i64:64-i128:128-f80:128-n8:16:32:64-S128"
target triple = "x86_64-pc-linux-gnu"

%struct.nameData = type { [64 x i8] }
%struct.ScanKeyData = type { i32, i16, i16, i32, i32, %struct.FmgrInfo, i64 }
%struct.FmgrInfo = type { ptr, i32, i16, i8, i8, i8, ptr, ptr, ptr }
%union.ListCell = type { ptr }
%struct.FormData_pg_constraint = type { i32, %struct.nameData, i32, i8, i8, i8, i8, i8, i32, i32, i32, i32, i32, i8, i8, i8, i8, i16, i8, i8 }
%struct.HeapTupleData = type { i32, %struct.ItemPointerData, i32, ptr }
%struct.ItemPointerData = type { %struct.BlockIdData, i16 }
%struct.BlockIdData = type { i16, i16 }
%struct.HeapTupleHeaderData = type { %union.anon, %struct.ItemPointerData, i16, i16, i8, [0 x i8] }
%union.anon = type { %struct.HeapTupleFields }
%struct.HeapTupleFields = type { i32, i32, %union.anon.0 }
%union.anon.0 = type { i32 }
%struct.ArrayType = type { i32, i32, i32, i32 }
%struct.CookedConstraint = type { i32, i32, ptr, i16, ptr, i8, i8, i8, i16, i8 }
%struct.Constraint = type { i32, i32, ptr, i8, i8, i8, i8, i8, i8, ptr, ptr, i8, i8, i8, ptr, i8, ptr, ptr, ptr, ptr, ptr, i8, ptr, ptr, ptr, ptr, ptr, i8, i8, i8, i8, i8, ptr, ptr, i32, i32 }
%struct.Node = type { i32 }

@.str.1 = private unnamed_addr constant [35 x i8] c"conkey is not a 1-D smallint array\00", align 1
@.str.2 = private unnamed_addr constant [16 x i8] c"pg_constraint.c\00", align 1
@__func__.extractNotNullColumn = private unnamed_addr constant [21 x i8] c"extractNotNullColumn\00", align 1

; Function Attrs: inlinehint nounwind uwtable
define internal ptr @DatumGetPointer(i64 noundef %0) #3 {
  %2 = alloca i64, align 8
  store i64 %0, ptr %2, align 8
  %3 = load i64, ptr %2, align 8
  %4 = inttoptr i64 %3 to ptr
  ret ptr %4
}

; Function Attrs: inlinehint nounwind uwtable
define internal ptr @newNode(i64 noundef %0, i32 noundef %1) #3 {
  %3 = alloca i64, align 8
  %4 = alloca i32, align 4
  %5 = alloca ptr, align 8
  store i64 %0, ptr %3, align 8
  store i32 %1, ptr %4, align 4
  call void @llvm.lifetime.start.p0(i64 8, ptr %5) #9
  %6 = load i64, ptr %3, align 8
  %7 = call ptr @palloc0(i64 noundef %6)
  store ptr %7, ptr %5, align 8
  %8 = load i32, ptr %4, align 4
  %9 = load ptr, ptr %5, align 8
  %10 = getelementptr inbounds nuw %struct.Node, ptr %9, i32 0, i32 0
  store i32 %8, ptr %10, align 4
  %11 = load ptr, ptr %5, align 8
  call void @llvm.lifetime.end.p0(i64 8, ptr %5) #9
  ret ptr %11
}

; Function Attrs: nounwind uwtable
define dso_local signext i16 @extractNotNullColumn(ptr noundef %0) #0 {
  %2 = alloca ptr, align 8
  %3 = alloca i64, align 8
  %4 = alloca ptr, align 8
  store ptr %0, ptr %2, align 8
  call void @llvm.lifetime.start.p0(i64 8, ptr %3) #9
  call void @llvm.lifetime.start.p0(i64 8, ptr %4) #9
  %5 = load ptr, ptr %2, align 8
  %6 = call i64 @SysCacheGetAttrNotNull(i32 noundef 19, ptr noundef %5, i16 noundef signext 21)
  store i64 %6, ptr %3, align 8
  %7 = load i64, ptr %3, align 8
  %8 = call ptr @DatumGetPointer(i64 noundef %7)
  %9 = call ptr @pg_detoast_datum(ptr noundef %8)
  store ptr %9, ptr %4, align 8
  %10 = load ptr, ptr %4, align 8
  %11 = getelementptr inbounds nuw %struct.ArrayType, ptr %10, i32 0, i32 1
  %12 = load i32, ptr %11, align 4
  %13 = icmp ne i32 %12, 1
  br i1 %13, label %30, label %14

14:                                               ; preds = %1
  %15 = load ptr, ptr %4, align 8
  %16 = getelementptr inbounds nuw %struct.ArrayType, ptr %15, i32 0, i32 2
  %17 = load i32, ptr %16, align 4
  %18 = icmp ne i32 %17, 0
  br i1 %18, label %30, label %19

19:                                               ; preds = %14
  %20 = load ptr, ptr %4, align 8
  %21 = getelementptr inbounds nuw %struct.ArrayType, ptr %20, i32 0, i32 3
  %22 = load i32, ptr %21, align 4
  %23 = icmp ne i32 %22, 21
  br i1 %23, label %30, label %24

24:                                               ; preds = %19
  %25 = load ptr, ptr %4, align 8
  %26 = getelementptr inbounds nuw i8, ptr %25, i64 16
  %27 = getelementptr inbounds i32, ptr %26, i64 0
  %28 = load i32, ptr %27, align 4
  %29 = icmp ne i32 %28, 1
  br i1 %29, label %30, label %41

30:                                               ; preds = %24, %19, %14, %1
  br label %31

31:                                               ; preds = %30
  br i1 true, label %32, label %34

32:                                               ; preds = %31
  %33 = call zeroext i1 @errstart_cold(i32 noundef 21, ptr noundef null) #11
  br i1 %33, label %36, label %38

34:                                               ; preds = %31
  %35 = call zeroext i1 @errstart(i32 noundef 21, ptr noundef null)
  br i1 %35, label %36, label %38

36:                                               ; preds = %34, %32
  %37 = call i32 (ptr, ...) @errmsg_internal(ptr noundef @.str.1)
  call void @errfinish(ptr noundef @.str.2, i32 noundef 711, ptr noundef @__func__.extractNotNullColumn)
  br label %38

38:                                               ; preds = %36, %34, %32
  unreachable

39:                                               ; No predecessors!
  br label %40

40:                                               ; preds = %39
  br label %41

41:                                               ; preds = %40, %24
  %42 = load ptr, ptr %4, align 8
  %43 = load ptr, ptr %4, align 8
  %44 = getelementptr inbounds nuw %struct.ArrayType, ptr %43, i32 0, i32 2
  %45 = load i32, ptr %44, align 4
  %46 = icmp ne i32 %45, 0
  br i1 %46, label %47, label %52

47:                                               ; preds = %41
  %48 = load ptr, ptr %4, align 8
  %49 = getelementptr inbounds nuw %struct.ArrayType, ptr %48, i32 0, i32 2
  %50 = load i32, ptr %49, align 4
  %51 = sext i32 %50 to i64
  br label %61

52:                                               ; preds = %41
  %53 = load ptr, ptr %4, align 8
  %54 = getelementptr inbounds nuw %struct.ArrayType, ptr %53, i32 0, i32 1
  %55 = load i32, ptr %54, align 4
  %56 = sext i32 %55 to i64
  %57 = mul i64 8, %56
  %58 = add i64 16, %57
  %59 = add i64 %58, 7
  %60 = and i64 %59, -8
  br label %61

61:                                               ; preds = %52, %47
  %62 = phi i64 [ %51, %47 ], [ %60, %52 ]
  %63 = getelementptr inbounds nuw i8, ptr %42, i64 %62
  %64 = getelementptr inbounds i16, ptr %63, i64 0
  %65 = load i16, ptr %64, align 2
  call void @llvm.lifetime.end.p0(i64 8, ptr %4) #9
  call void @llvm.lifetime.end.p0(i64 8, ptr %3) #9
  ret i16 %65
}

; Function Attrs: inlinehint nounwind uwtable
define internal ptr @GETSTRUCT(ptr noundef %0) #3 {
  %2 = alloca ptr, align 8
  store ptr %0, ptr %2, align 8
  %3 = load ptr, ptr %2, align 8
  %4 = getelementptr inbounds nuw %struct.HeapTupleData, ptr %3, i32 0, i32 3
  %5 = load ptr, ptr %4, align 8
  %6 = load ptr, ptr %2, align 8
  %7 = getelementptr inbounds nuw %struct.HeapTupleData, ptr %6, i32 0, i32 3
  %8 = load ptr, ptr %7, align 8
  %9 = getelementptr inbounds nuw %struct.HeapTupleHeaderData, ptr %8, i32 0, i32 4
  %10 = load i8, ptr %9, align 2
  %11 = zext i8 %10 to i32
  %12 = sext i32 %11 to i64
  %13 = getelementptr inbounds i8, ptr %5, i64 %12
  ret ptr %13
}

; Function Attrs: inlinehint nounwind uwtable
define internal i64 @ObjectIdGetDatum(i32 noundef %0) #3 {
  %2 = alloca i32, align 4
  store i32 %0, ptr %2, align 4
  %3 = load i32, ptr %2, align 4
  %4 = zext i32 %3 to i64
  ret i64 %4
}

; Function Attrs: nounwind uwtable
define dso_local ptr @RelationGetNotNullConstraints(i32 noundef %0, i1 noundef zeroext %1, i1 noundef zeroext %2) #0 {
  %4 = alloca i32, align 4
  %5 = alloca i8, align 1
  %6 = alloca i8, align 1
  %7 = alloca ptr, align 8
  %8 = alloca ptr, align 8
  %9 = alloca ptr, align 8
  %10 = alloca ptr, align 8
  %11 = alloca %struct.ScanKeyData, align 8
  %12 = alloca ptr, align 8
  %13 = alloca i16, align 2
  %14 = alloca i32, align 4
  %15 = alloca ptr, align 8
  %16 = alloca ptr, align 8
  %17 = alloca %union.ListCell, align 8
  store i32 %0, ptr %4, align 4
  %18 = zext i1 %1 to i8
  store i8 %18, ptr %5, align 1
  %19 = zext i1 %2 to i8
  store i8 %19, ptr %6, align 1
  call void @llvm.lifetime.start.p0(i64 8, ptr %7) #9
  store ptr null, ptr %7, align 8
  call void @llvm.lifetime.start.p0(i64 8, ptr %8) #9
  call void @llvm.lifetime.start.p0(i64 8, ptr %9) #9
  call void @llvm.lifetime.start.p0(i64 8, ptr %10) #9
  call void @llvm.lifetime.start.p0(i64 72, ptr %11) #9
  %20 = call ptr @table_open(i32 noundef 2606, i32 noundef 1)
  store ptr %20, ptr %8, align 8
  %21 = load i32, ptr %4, align 4
  %22 = call i64 @ObjectIdGetDatum(i32 noundef %21)
  call void @ScanKeyInit(ptr noundef %11, i16 noundef signext 9, i16 noundef zeroext 3, i32 noundef 184, i64 noundef %22)
  %23 = load ptr, ptr %8, align 8
  %24 = call ptr @systable_beginscan(ptr noundef %23, i32 noundef 2665, i1 noundef zeroext true, ptr noundef null, i32 noundef 1, ptr noundef %11)
  store ptr %24, ptr %10, align 8
  br label %25

25:                                               ; preds = %136, %134, %3
  %26 = load ptr, ptr %10, align 8
  %27 = call ptr @systable_getnext(ptr noundef %26)
  store ptr %27, ptr %9, align 8
  %28 = icmp ne ptr %27, null
  br i1 %28, label %29, label %137

29:                                               ; preds = %25
  call void @llvm.lifetime.start.p0(i64 8, ptr %12) #9
  %30 = load ptr, ptr %9, align 8
  %31 = call ptr @GETSTRUCT(ptr noundef %30)
  store ptr %31, ptr %12, align 8
  call void @llvm.lifetime.start.p0(i64 2, ptr %13) #9
  %32 = load ptr, ptr %12, align 8
  %33 = getelementptr inbounds nuw %struct.FormData_pg_constraint, ptr %32, i32 0, i32 3
  %34 = load i8, ptr %33, align 4
  %35 = sext i8 %34 to i32
  %36 = icmp ne i32 %35, 110
  br i1 %36, label %37, label %38

37:                                               ; preds = %29
  store i32 2, ptr %14, align 4
  br label %134, !llvm.loop !21

38:                                               ; preds = %29
  %39 = load ptr, ptr %12, align 8
  %40 = getelementptr inbounds nuw %struct.FormData_pg_constraint, ptr %39, i32 0, i32 18
  %41 = load i8, ptr %40, align 2, !range !13, !noundef !14
  %42 = trunc i8 %41 to i1
  br i1 %42, label %43, label %47

43:                                               ; preds = %38
  %44 = load i8, ptr %6, align 1, !range !13, !noundef !14
  %45 = trunc i8 %44 to i1
  br i1 %45, label %47, label %46

46:                                               ; preds = %43
  store i32 2, ptr %14, align 4
  br label %134, !llvm.loop !21

47:                                               ; preds = %43, %38
  %48 = load ptr, ptr %9, align 8
  %49 = call signext i16 @extractNotNullColumn(ptr noundef %48)
  store i16 %49, ptr %13, align 2
  %50 = load i8, ptr %5, align 1, !range !13, !noundef !14
  %51 = trunc i8 %50 to i1
  br i1 %51, label %52, label %91

52:                                               ; preds = %47
  call void @llvm.lifetime.start.p0(i64 8, ptr %15) #9
  %53 = call ptr @palloc(i64 noundef 40)
  store ptr %53, ptr %15, align 8
  %54 = load ptr, ptr %15, align 8
  %55 = getelementptr inbounds nuw %struct.CookedConstraint, ptr %54, i32 0, i32 0
  store i32 1, ptr %55, align 8
  %56 = load ptr, ptr %12, align 8
  %57 = getelementptr inbounds nuw %struct.FormData_pg_constraint, ptr %56, i32 0, i32 0
  %58 = load i32, ptr %57, align 4
  %59 = load ptr, ptr %15, align 8
  %60 = getelementptr inbounds nuw %struct.CookedConstraint, ptr %59, i32 0, i32 1
  store i32 %58, ptr %60, align 4
  %61 = load ptr, ptr %12, align 8
  %62 = getelementptr inbounds nuw %struct.FormData_pg_constraint, ptr %61, i32 0, i32 1
  %63 = getelementptr inbounds nuw %struct.nameData, ptr %62, i32 0, i32 0
  %64 = getelementptr inbounds [64 x i8], ptr %63, i64 0, i64 0
  %65 = call ptr @pstrdup(ptr noundef %64)
  %66 = load ptr, ptr %15, align 8
  %67 = getelementptr inbounds nuw %struct.CookedConstraint, ptr %66, i32 0, i32 2
  store ptr %65, ptr %67, align 8
  %68 = load i16, ptr %13, align 2
  %69 = load ptr, ptr %15, align 8
  %70 = getelementptr inbounds nuw %struct.CookedConstraint, ptr %69, i32 0, i32 3
  store i16 %68, ptr %70, align 8
  %71 = load ptr, ptr %15, align 8
  %72 = getelementptr inbounds nuw %struct.CookedConstraint, ptr %71, i32 0, i32 4
  store ptr null, ptr %72, align 8
  %73 = load ptr, ptr %15, align 8
  %74 = getelementptr inbounds nuw %struct.CookedConstraint, ptr %73, i32 0, i32 5
  store i8 1, ptr %74, align 8
  %75 = load ptr, ptr %15, align 8
  %76 = getelementptr inbounds nuw %struct.CookedConstraint, ptr %75, i32 0, i32 6
  store i8 0, ptr %76, align 1
  %77 = load ptr, ptr %15, align 8
  %78 = getelementptr inbounds nuw %struct.CookedConstraint, ptr %77, i32 0, i32 7
  store i8 1, ptr %78, align 2
  %79 = load ptr, ptr %15, align 8
  %80 = getelementptr inbounds nuw %struct.CookedConstraint, ptr %79, i32 0, i32 8
  store i16 0, ptr %80, align 4
  %81 = load ptr, ptr %12, align 8
  %82 = getelementptr inbounds nuw %struct.FormData_pg_constraint, ptr %81, i32 0, i32 18
  %83 = load i8, ptr %82, align 2, !range !13, !noundef !14
  %84 = trunc i8 %83 to i1
  %85 = load ptr, ptr %15, align 8
  %86 = getelementptr inbounds nuw %struct.CookedConstraint, ptr %85, i32 0, i32 9
  %87 = zext i1 %84 to i8
  store i8 %87, ptr %86, align 2
  %88 = load ptr, ptr %7, align 8
  %89 = load ptr, ptr %15, align 8
  %90 = call ptr @lappend(ptr noundef %88, ptr noundef %89)
  store ptr %90, ptr %7, align 8
  call void @llvm.lifetime.end.p0(i64 8, ptr %15) #9
  br label %133

91:                                               ; preds = %47
  call void @llvm.lifetime.start.p0(i64 8, ptr %16) #9
  %92 = call ptr @newNode(i64 noundef 184, i32 noundef 160)
  store ptr %92, ptr %16, align 8
  %93 = load ptr, ptr %16, align 8
  %94 = getelementptr inbounds nuw %struct.Constraint, ptr %93, i32 0, i32 1
  store i32 1, ptr %94, align 4
  %95 = load ptr, ptr %12, align 8
  %96 = getelementptr inbounds nuw %struct.FormData_pg_constraint, ptr %95, i32 0, i32 1
  %97 = getelementptr inbounds nuw %struct.nameData, ptr %96, i32 0, i32 0
  %98 = getelementptr inbounds [64 x i8], ptr %97, i64 0, i64 0
  %99 = call ptr @pstrdup(ptr noundef %98)
  %100 = load ptr, ptr %16, align 8
  %101 = getelementptr inbounds nuw %struct.Constraint, ptr %100, i32 0, i32 2
  store ptr %99, ptr %101, align 8
  %102 = load ptr, ptr %16, align 8
  %103 = getelementptr inbounds nuw %struct.Constraint, ptr %102, i32 0, i32 3
  store i8 0, ptr %103, align 8
  %104 = load ptr, ptr %16, align 8
  %105 = getelementptr inbounds nuw %struct.Constraint, ptr %104, i32 0, i32 4
  store i8 0, ptr %105, align 1
  %106 = load ptr, ptr %16, align 8
  %107 = getelementptr inbounds nuw %struct.Constraint, ptr %106, i32 0, i32 35
  store i32 -1, ptr %107, align 4
  %108 = load i32, ptr %4, align 4
  %109 = load i16, ptr %13, align 2
  %110 = call ptr @get_attname(i32 noundef %108, i16 noundef signext %109, i1 noundef zeroext false)
  %111 = call ptr @makeString(ptr noundef %110)
  store ptr %111, ptr %17, align 8
  %112 = getelementptr inbounds nuw %union.ListCell, ptr %17, i32 0, i32 0
  %113 = load ptr, ptr %112, align 8
  %114 = call ptr @list_make1_impl(i32 noundef 1, ptr %113)
  %115 = load ptr, ptr %16, align 8
  %116 = getelementptr inbounds nuw %struct.Constraint, ptr %115, i32 0, i32 14
  store ptr %114, ptr %116, align 8
  %117 = load ptr, ptr %16, align 8
  %118 = getelementptr inbounds nuw %struct.Constraint, ptr %117, i32 0, i32 5
  store i8 1, ptr %118, align 2
  %119 = load ptr, ptr %16, align 8
  %120 = getelementptr inbounds nuw %struct.Constraint, ptr %119, i32 0, i32 6
  store i8 0, ptr %120, align 1
  %121 = load ptr, ptr %16, align 8
  %122 = getelementptr inbounds nuw %struct.Constraint, ptr %121, i32 0, i32 7
  store i8 1, ptr %122, align 4
  %123 = load ptr, ptr %12, align 8
  %124 = getelementptr inbounds nuw %struct.FormData_pg_constraint, ptr %123, i32 0, i32 18
  %125 = load i8, ptr %124, align 2, !range !13, !noundef !14
  %126 = trunc i8 %125 to i1
  %127 = load ptr, ptr %16, align 8
  %128 = getelementptr inbounds nuw %struct.Constraint, ptr %127, i32 0, i32 8
  %129 = zext i1 %126 to i8
  store i8 %129, ptr %128, align 1
  %130 = load ptr, ptr %7, align 8
  %131 = load ptr, ptr %16, align 8
  %132 = call ptr @lappend(ptr noundef %130, ptr noundef %131)
  store ptr %132, ptr %7, align 8
  call void @llvm.lifetime.end.p0(i64 8, ptr %16) #9
  br label %133

133:                                              ; preds = %91, %52
  store i32 0, ptr %14, align 4
  br label %134

134:                                              ; preds = %133, %46, %37
  call void @llvm.lifetime.end.p0(i64 2, ptr %13) #9
  call void @llvm.lifetime.end.p0(i64 8, ptr %12) #9
  %135 = load i32, ptr %14, align 4
  switch i32 %135, label %141 [
    i32 0, label %136
    i32 2, label %25
  ]

136:                                              ; preds = %134
  br label %25, !llvm.loop !21

137:                                              ; preds = %25
  %138 = load ptr, ptr %10, align 8
  call void @systable_endscan(ptr noundef %138)
  %139 = load ptr, ptr %8, align 8
  call void @table_close(ptr noundef %139, i32 noundef 1)
  %140 = load ptr, ptr %7, align 8
  store i32 1, ptr %14, align 4
  call void @llvm.lifetime.end.p0(i64 72, ptr %11) #9
  call void @llvm.lifetime.end.p0(i64 8, ptr %10) #9
  call void @llvm.lifetime.end.p0(i64 8, ptr %9) #9
  call void @llvm.lifetime.end.p0(i64 8, ptr %8) #9
  call void @llvm.lifetime.end.p0(i64 8, ptr %7) #9
  ret ptr %140

141:                                              ; preds = %134
  unreachable
}