; Function Attrs: nounwind uwtable
define dso_local ptr @RelationGetNotNullConstraints(i32 noundef %0, i1 noundef zeroext %1, i1 noundef zeroext %2) local_unnamed_addr #0 {
  %4 = alloca %struct.ScanKeyData, align 8
  call void @llvm.lifetime.start.p0(i64 72, ptr nonnull %4) #12
  %5 = tail call ptr @table_open(i32 noundef 2606, i32 noundef 1) #12
  %6 = zext i32 %0 to i64
  call void @ScanKeyInit(ptr noundef nonnull %4, i16 noundef signext 9, i16 noundef zeroext 3, i32 noundef 184, i64 noundef %6) #12
  %7 = call ptr @systable_beginscan(ptr noundef %5, i32 noundef 2665, i1 noundef zeroext true, ptr noundef null, i32 noundef 1, ptr noundef nonnull %4) #12
  %8 = call ptr @systable_getnext(ptr noundef %7) #12
  %.not47 = icmp eq ptr %8, null
  br i1 %.not47, label %._crit_edge, label %.lr.ph

.lr.ph:                                           ; preds = %3
  br i1 %1, label %.lr.ph.split.us, label %.lr.ph.split

.lr.ph.split.us:                                  ; preds = %.lr.ph, %53
  %9 = phi ptr [ %54, %53 ], [ %8, %.lr.ph ]
  %.048.us = phi ptr [ %.1.us, %53 ], [ null, %.lr.ph ]
  %10 = getelementptr i8, ptr %9, i64 16
  %.val.us = load ptr, ptr %10, align 8
  %11 = getelementptr inbounds nuw i8, ptr %.val.us, i64 22
  %12 = load i8, ptr %11, align 2
  %13 = zext i8 %12 to i64
  %14 = getelementptr inbounds nuw i8, ptr %.val.us, i64 %13
  %15 = getelementptr inbounds nuw i8, ptr %14, i64 72
  %16 = load i8, ptr %15, align 4
  %.not44.us = icmp eq i8 %16, 110
  br i1 %.not44.us, label %17, label %53, !llvm.loop !19

17:                                               ; preds = %.lr.ph.split.us
  %18 = getelementptr inbounds nuw i8, ptr %14, i64 106
  %19 = load i8, ptr %18, align 2, !range !16, !noundef !17
  %20 = trunc nuw i8 %19 to i1
  %.not45.us = xor i1 %20, true
  %brmerge.us = or i1 %2, %.not45.us
  br i1 %brmerge.us, label %21, label %53, !llvm.loop !19

21:                                               ; preds = %17
  %22 = call i64 @SysCacheGetAttrNotNull(i32 noundef 19, ptr noundef nonnull %9, i16 noundef signext 21) #12
  %23 = inttoptr i64 %22 to ptr
  %24 = call ptr @pg_detoast_datum(ptr noundef %23) #12
  %25 = getelementptr inbounds nuw i8, ptr %24, i64 4
  %26 = load i32, ptr %25, align 4
  %.not.i.us = icmp eq i32 %26, 1
  br i1 %.not.i.us, label %27, label %.split.us

27:                                               ; preds = %21
  %28 = getelementptr inbounds nuw i8, ptr %24, i64 8
  %29 = load i32, ptr %28, align 4
  %.not10.i.us = icmp eq i32 %29, 0
  br i1 %.not10.i.us, label %30, label %.split.us

30:                                               ; preds = %27
  %31 = getelementptr inbounds nuw i8, ptr %24, i64 12
  %32 = load i32, ptr %31, align 4
  %.not11.i.us = icmp eq i32 %32, 21
  br i1 %.not11.i.us, label %33, label %.split.us

33:                                               ; preds = %30
  %34 = getelementptr inbounds nuw i8, ptr %24, i64 16
  %35 = load i32, ptr %34, align 4
  %.not12.i.us = icmp eq i32 %35, 1
  br i1 %.not12.i.us, label %extractNotNullColumn.exit.us, label %.split.us

extractNotNullColumn.exit.us:                     ; preds = %33
  %36 = getelementptr inbounds nuw i8, ptr %24, i64 24
  %37 = load i16, ptr %36, align 2
  %38 = call ptr @palloc(i64 noundef 40) #12
  store i32 1, ptr %38, align 8
  %39 = load i32, ptr %14, align 4
  %40 = getelementptr inbounds nuw i8, ptr %38, i64 4
  store i32 %39, ptr %40, align 4
  %41 = getelementptr inbounds nuw i8, ptr %14, i64 4
  %42 = call ptr @pstrdup(ptr noundef nonnull %41) #12
  %43 = getelementptr inbounds nuw i8, ptr %38, i64 8
  store ptr %42, ptr %43, align 8
  %44 = getelementptr inbounds nuw i8, ptr %38, i64 16
  store i16 %37, ptr %44, align 8
  %45 = getelementptr inbounds nuw i8, ptr %38, i64 24
  store ptr null, ptr %45, align 8
  %46 = getelementptr inbounds nuw i8, ptr %38, i64 32
  store i8 1, ptr %46, align 8
  %47 = getelementptr inbounds nuw i8, ptr %38, i64 33
  store i8 0, ptr %47, align 1
  %48 = getelementptr inbounds nuw i8, ptr %38, i64 34
  store i8 1, ptr %48, align 2
  %49 = getelementptr inbounds nuw i8, ptr %38, i64 36
  store i16 0, ptr %49, align 4
  %50 = load i8, ptr %18, align 2, !range !16, !noundef !17
  %51 = getelementptr inbounds nuw i8, ptr %38, i64 38
  store i8 %50, ptr %51, align 2
  %52 = call ptr @lappend(ptr noundef %.048.us, ptr noundef nonnull %38) #12
  br label %53

53:                                               ; preds = %extractNotNullColumn.exit.us, %17, %.lr.ph.split.us
  %.1.us = phi ptr [ %.048.us, %.lr.ph.split.us ], [ %.048.us, %17 ], [ %52, %extractNotNullColumn.exit.us ]
  %54 = call ptr @systable_getnext(ptr noundef %7) #12
  %.not.us = icmp eq ptr %54, null
  br i1 %.not.us, label %._crit_edge, label %.lr.ph.split.us

.lr.ph.split:                                     ; preds = %.lr.ph, %104
  %55 = phi ptr [ %105, %104 ], [ %8, %.lr.ph ]
  %.048 = phi ptr [ %.1, %104 ], [ null, %.lr.ph ]
  %56 = getelementptr i8, ptr %55, i64 16
  %.val = load ptr, ptr %56, align 8
  %57 = getelementptr inbounds nuw i8, ptr %.val, i64 22
  %58 = load i8, ptr %57, align 2
  %59 = zext i8 %58 to i64
  %60 = getelementptr inbounds nuw i8, ptr %.val, i64 %59
  %61 = getelementptr inbounds nuw i8, ptr %60, i64 72
  %62 = load i8, ptr %61, align 4
  %.not44 = icmp eq i8 %62, 110
  br i1 %.not44, label %63, label %104, !llvm.loop !19

63:                                               ; preds = %.lr.ph.split
  %64 = getelementptr inbounds nuw i8, ptr %60, i64 106
  %65 = load i8, ptr %64, align 2, !range !16, !noundef !17
  %66 = trunc nuw i8 %65 to i1
  %.not45 = xor i1 %66, true
  %brmerge = or i1 %2, %.not45
  br i1 %brmerge, label %67, label %104, !llvm.loop !19

67:                                               ; preds = %63
  %68 = call i64 @SysCacheGetAttrNotNull(i32 noundef 19, ptr noundef nonnull %55, i16 noundef signext 21) #12
  %69 = inttoptr i64 %68 to ptr
  %70 = call ptr @pg_detoast_datum(ptr noundef %69) #12
  %71 = getelementptr inbounds nuw i8, ptr %70, i64 4
  %72 = load i32, ptr %71, align 4
  %.not.i = icmp eq i32 %72, 1
  br i1 %.not.i, label %73, label %.split.us

73:                                               ; preds = %67
  %74 = getelementptr inbounds nuw i8, ptr %70, i64 8
  %75 = load i32, ptr %74, align 4
  %.not10.i = icmp eq i32 %75, 0
  br i1 %.not10.i, label %76, label %.split.us

76:                                               ; preds = %73
  %77 = getelementptr inbounds nuw i8, ptr %70, i64 12
  %78 = load i32, ptr %77, align 4
  %.not11.i = icmp eq i32 %78, 21
  br i1 %.not11.i, label %79, label %.split.us

79:                                               ; preds = %76
  %80 = getelementptr inbounds nuw i8, ptr %70, i64 16
  %81 = load i32, ptr %80, align 4
  %.not12.i = icmp eq i32 %81, 1
  br i1 %.not12.i, label %extractNotNullColumn.exit, label %.split.us

.split.us:                                        ; preds = %67, %73, %76, %79, %21, %27, %30, %33
  %82 = call zeroext i1 @errstart_cold(i32 noundef 21, ptr noundef null) #14
  call void @llvm.assume(i1 %82)
  %83 = call i32 (ptr, ...) @errmsg_internal(ptr noundef nonnull @.str.1) #12
  call void @errfinish(ptr noundef nonnull @.str.2, i32 noundef 711, ptr noundef nonnull @__func__.extractNotNullColumn) #12
  unreachable

extractNotNullColumn.exit:                        ; preds = %79
  %84 = getelementptr inbounds nuw i8, ptr %70, i64 24
  %85 = load i16, ptr %84, align 2
  %86 = call noundef ptr @palloc0(i64 noundef 184) #12
  store i32 160, ptr %86, align 4
  %87 = getelementptr inbounds nuw i8, ptr %86, i64 4
  store i32 1, ptr %87, align 4
  %88 = getelementptr inbounds nuw i8, ptr %60, i64 4
  %89 = call ptr @pstrdup(ptr noundef nonnull %88) #12
  %90 = getelementptr inbounds nuw i8, ptr %86, i64 8
  store ptr %89, ptr %90, align 8
  %91 = getelementptr inbounds nuw i8, ptr %86, i64 16
  store i8 0, ptr %91, align 8
  %92 = getelementptr inbounds nuw i8, ptr %86, i64 17
  store i8 0, ptr %92, align 1
  %93 = getelementptr inbounds nuw i8, ptr %86, i64 180
  store i32 -1, ptr %93, align 4
  %94 = call ptr @get_attname(i32 noundef %0, i16 noundef signext %85, i1 noundef zeroext false) #12
  %95 = call ptr @makeString(ptr noundef %94) #12
  %96 = call ptr @list_make1_impl(i32 noundef 1, ptr %95) #12
  %97 = getelementptr inbounds nuw i8, ptr %86, i64 48
  store ptr %96, ptr %97, align 8
  %98 = getelementptr inbounds nuw i8, ptr %86, i64 18
  store i8 1, ptr %98, align 2
  %99 = getelementptr inbounds nuw i8, ptr %86, i64 19
  store i8 0, ptr %99, align 1
  %100 = getelementptr inbounds nuw i8, ptr %86, i64 20
  store i8 1, ptr %100, align 4
  %101 = load i8, ptr %64, align 2, !range !16, !noundef !17
  %102 = getelementptr inbounds nuw i8, ptr %86, i64 21
  store i8 %101, ptr %102, align 1
  %103 = call ptr @lappend(ptr noundef %.048, ptr noundef nonnull %86) #12
  br label %104

104:                                              ; preds = %extractNotNullColumn.exit, %63, %.lr.ph.split
  %.1 = phi ptr [ %.048, %.lr.ph.split ], [ %.048, %63 ], [ %103, %extractNotNullColumn.exit ]
  %105 = call ptr @systable_getnext(ptr noundef %7) #12
  %.not = icmp eq ptr %105, null
  br i1 %.not, label %._crit_edge, label %.lr.ph.split

._crit_edge:                                      ; preds = %104, %53, %3
  %.0.lcssa = phi ptr [ null, %3 ], [ %.1.us, %53 ], [ %.1, %104 ]
  call void @systable_endscan(ptr noundef %7) #12
  call void @table_close(ptr noundef %5, i32 noundef 1) #12
  call void @llvm.lifetime.end.p0(i64 72, ptr nonnull %4) #12
  ret ptr %.0.lcssa
}